target datalayout = "e-m:e-p270:32:32-p271:32:32-p272:64:64-i64:64-i128:128-f80:128-n8:16:32:64-S128"
target triple = "x86_64-pc-linux-gnu"

%"struct.duckdb_hll::robj" = type { ptr }
%"struct.duckdb_hll::hllhdr" = type { [4 x i8], i8, [3 x i8], [8 x i8], [1 x i8] }

; Function Attrs: inlinehint mustprogress nounwind uwtable
define internal noundef i32 @_ZN10duckdb_hllL11hllDenseSetEPhlh(ptr noundef %0, i64 noundef %1, i8 noundef zeroext %2) #3 {
  %4 = alloca i32, align 4
  %5 = alloca ptr, align 8
  %6 = alloca i64, align 8
  %7 = alloca i8, align 1
  %8 = alloca i8, align 1
  %9 = alloca ptr, align 8
  %10 = alloca i64, align 8
  %11 = alloca i64, align 8
  %12 = alloca i64, align 8
  %13 = alloca i64, align 8
  %14 = alloca i64, align 8
  %15 = alloca ptr, align 8
  %16 = alloca i64, align 8
  %17 = alloca i64, align 8
  %18 = alloca i64, align 8
  %19 = alloca i64, align 8
  %20 = alloca i32, align 4
  store ptr %0, ptr %5, align 8, !tbaa !11
  store i64 %1, ptr %6, align 8, !tbaa !9
  store i8 %2, ptr %7, align 1, !tbaa !15
  call void @llvm.lifetime.start.p0(i64 1, ptr %8) #10
  br label %21

21:                                               ; preds = %3
  call void @llvm.lifetime.start.p0(i64 8, ptr %9) #10
  %22 = load ptr, ptr %5, align 8, !tbaa !11
  store ptr %22, ptr %9, align 8, !tbaa !11
  call void @llvm.lifetime.start.p0(i64 8, ptr %10) #10
  %23 = load i64, ptr %6, align 8, !tbaa !9
  %24 = mul nsw i64 %23, 6
  %25 = sdiv i64 %24, 8
  store i64 %25, ptr %10, align 8, !tbaa !9
  call void @llvm.lifetime.start.p0(i64 8, ptr %11) #10
  %26 = load i64, ptr %6, align 8, !tbaa !9
  %27 = mul nsw i64 %26, 6
  %28 = and i64 %27, 7
  store i64 %28, ptr %11, align 8, !tbaa !9
  call void @llvm.lifetime.start.p0(i64 8, ptr %12) #10
  %29 = load i64, ptr %11, align 8, !tbaa !9
  %30 = sub i64 8, %29
  store i64 %30, ptr %12, align 8, !tbaa !9
  call void @llvm.lifetime.start.p0(i64 8, ptr %13) #10
  %31 = load ptr, ptr %9, align 8, !tbaa !11
  %32 = load i64, ptr %10, align 8, !tbaa !9
  %33 = getelementptr inbounds nuw i8, ptr %31, i64 %32
  %34 = load i8, ptr %33, align 1, !tbaa !15
  %35 = zext i8 %34 to i64
  store i64 %35, ptr %13, align 8, !tbaa !9
  call void @llvm.lifetime.start.p0(i64 8, ptr %14) #10
  %36 = load ptr, ptr %9, align 8, !tbaa !11
  %37 = load i64, ptr %10, align 8, !tbaa !9
  %38 = add i64 %37, 1
  %39 = getelementptr inbounds nuw i8, ptr %36, i64 %38
  %40 = load i8, ptr %39, align 1, !tbaa !15
  %41 = zext i8 %40 to i64
  store i64 %41, ptr %14, align 8, !tbaa !9
  %42 = load i64, ptr %13, align 8, !tbaa !9
  %43 = load i64, ptr %11, align 8, !tbaa !9
  %44 = lshr i64 %42, %43
  %45 = load i64, ptr %14, align 8, !tbaa !9
  %46 = load i64, ptr %12, align 8, !tbaa !9
  %47 = shl i64 %45, %46
  %48 = or i64 %44, %47
  %49 = and i64 %48, 63
  %50 = trunc i64 %49 to i8
  store i8 %50, ptr %8, align 1, !tbaa !15
  call void @llvm.lifetime.end.p0(i64 8, ptr %14) #10
  call void @llvm.lifetime.end.p0(i64 8, ptr %13) #10
  call void @llvm.lifetime.end.p0(i64 8, ptr %12) #10
  call void @llvm.lifetime.end.p0(i64 8, ptr %11) #10
  call void @llvm.lifetime.end.p0(i64 8, ptr %10) #10
  call void @llvm.lifetime.end.p0(i64 8, ptr %9) #10
  br label %51

51:                                               ; preds = %21
  br label %52

52:                                               ; preds = %51
  %53 = load i8, ptr %7, align 1, !tbaa !15
  %54 = zext i8 %53 to i32
  %55 = load i8, ptr %8, align 1, !tbaa !15
  %56 = zext i8 %55 to i32
  %57 = icmp sgt i32 %54, %56
  br i1 %57, label %58, label %117

58:                                               ; preds = %52
  br label %59

59:                                               ; preds = %58
  call void @llvm.lifetime.start.p0(i64 8, ptr %15) #10
  %60 = load ptr, ptr %5, align 8, !tbaa !11
  store ptr %60, ptr %15, align 8, !tbaa !11
  call void @llvm.lifetime.start.p0(i64 8, ptr %16) #10
  %61 = load i64, ptr %6, align 8, !tbaa !9
  %62 = mul nsw i64 %61, 6
  %63 = sdiv i64 %62, 8
  store i64 %63, ptr %16, align 8, !tbaa !9
  call void @llvm.lifetime.start.p0(i64 8, ptr %17) #10
  %64 = load i64, ptr %6, align 8, !tbaa !9
  %65 = mul nsw i64 %64, 6
  %66 = and i64 %65, 7
  store i64 %66, ptr %17, align 8, !tbaa !9
  call void @llvm.lifetime.start.p0(i64 8, ptr %18) #10
  %67 = load i64, ptr %17, align 8, !tbaa !9
  %68 = sub i64 8, %67
  store i64 %68, ptr %18, align 8, !tbaa !9
  call void @llvm.lifetime.start.p0(i64 8, ptr %19) #10
  %69 = load i8, ptr %7, align 1, !tbaa !15
  %70 = zext i8 %69 to i64
  store i64 %70, ptr %19, align 8, !tbaa !9
  %71 = load i64, ptr %17, align 8, !tbaa !9
  %72 = trunc i64 %71 to i32
  %73 = shl i32 63, %72
  %74 = xor i32 %73, -1
  %75 = load ptr, ptr %15, align 8, !tbaa !11
  %76 = load i64, ptr %16, align 8, !tbaa !9
  %77 = getelementptr inbounds nuw i8, ptr %75, i64 %76
  %78 = load i8, ptr %77, align 1, !tbaa !15
  %79 = zext i8 %78 to i32
  %80 = and i32 %79, %74
  %81 = trunc i32 %80 to i8
  store i8 %81, ptr %77, align 1, !tbaa !15
  %82 = load i64, ptr %19, align 8, !tbaa !9
  %83 = load i64, ptr %17, align 8, !tbaa !9
  %84 = shl i64 %82, %83
  %85 = load ptr, ptr %15, align 8, !tbaa !11
  %86 = load i64, ptr %16, align 8, !tbaa !9
  %87 = getelementptr inbounds nuw i8, ptr %85, i64 %86
  %88 = load i8, ptr %87, align 1, !tbaa !15
  %89 = zext i8 %88 to i64
  %90 = or i64 %89, %84
  %91 = trunc i64 %90 to i8
  store i8 %91, ptr %87, align 1, !tbaa !15
  %92 = load i64, ptr %18, align 8, !tbaa !9
  %93 = trunc i64 %92 to i32
  %94 = ashr i32 63, %93
  %95 = xor i32 %94, -1
  %96 = load ptr, ptr %15, align 8, !tbaa !11
  %97 = load i64, ptr %16, align 8, !tbaa !9
  %98 = add i64 %97, 1
  %99 = getelementptr inbounds nuw i8, ptr %96, i64 %98
  %100 = load i8, ptr %99, align 1, !tbaa !15
  %101 = zext i8 %100 to i32
  %102 = and i32 %101, %95
  %103 = trunc i32 %102 to i8
  store i8 %103, ptr %99, align 1, !tbaa !15
  %104 = load i64, ptr %19, align 8, !tbaa !9
  %105 = load i64, ptr %18, align 8, !tbaa !9
  %106 = lshr i64 %104, %105
  %107 = load ptr, ptr %15, align 8, !tbaa !11
  %108 = load i64, ptr %16, align 8, !tbaa !9
  %109 = add i64 %108, 1
  %110 = getelementptr inbounds nuw i8, ptr %107, i64 %109
  %111 = load i8, ptr %110, align 1, !tbaa !15
  %112 = zext i8 %111 to i64
  %113 = or i64 %112, %106
  %114 = trunc i64 %113 to i8
  store i8 %114, ptr %110, align 1, !tbaa !15
  call void @llvm.lifetime.end.p0(i64 8, ptr %19) #10
  call void @llvm.lifetime.end.p0(i64 8, ptr %18) #10
  call void @llvm.lifetime.end.p0(i64 8, ptr %17) #10
  call void @llvm.lifetime.end.p0(i64 8, ptr %16) #10
  call void @llvm.lifetime.end.p0(i64 8, ptr %15) #10
  br label %115

115:                                              ; preds = %59
  br label %116

116:                                              ; preds = %115
  store i32 1, ptr %4, align 4
  store i32 1, ptr %20, align 4
  br label %118

117:                                              ; preds = %52
  store i32 0, ptr %4, align 4
  store i32 1, ptr %20, align 4
  br label %118

118:                                              ; preds = %117, %116
  call void @llvm.lifetime.end.p0(i64 1, ptr %8) #10
  %119 = load i32, ptr %4, align 4
  ret i32 %119
}

; Function Attrs: mustprogress uwtable
define noundef i32 @_ZN10duckdb_hll12hllSparseAddEPNS_4robjEPhm(ptr noundef %0, ptr noundef %1, i64 noundef %2) #2 {
  %4 = alloca ptr, align 8
  %5 = alloca ptr, align 8
  %6 = alloca i64, align 8
  %7 = alloca i64, align 8
  %8 = alloca i8, align 1
  store ptr %0, ptr %4, align 8, !tbaa !22
  store ptr %1, ptr %5, align 8, !tbaa !11
  store i64 %2, ptr %6, align 8, !tbaa !9
  call void @llvm.lifetime.start.p0(i64 8, ptr %7) #10
  call void @llvm.lifetime.start.p0(i64 1, ptr %8) #10
  %9 = load ptr, ptr %5, align 8, !tbaa !11
  %10 = load i64, ptr %6, align 8, !tbaa !9
  %11 = call noundef i32 @_ZN10duckdb_hll9hllPatLenEPhmPl(ptr noundef %9, i64 noundef %10, ptr noundef %7)
  %12 = trunc i32 %11 to i8
  store i8 %12, ptr %8, align 1, !tbaa !15
  %13 = load ptr, ptr %4, align 8, !tbaa !22
  %14 = load i64, ptr %7, align 8, !tbaa !9
  %15 = load i8, ptr %8, align 1, !tbaa !15
  %16 = call noundef i32 @_ZN10duckdb_hll12hllSparseSetEPNS_4robjElh(ptr noundef %13, i64 noundef %14, i8 noundef zeroext %15)
  call void @llvm.lifetime.end.p0(i64 1, ptr %8) #10
  call void @llvm.lifetime.end.p0(i64 8, ptr %7) #10
  ret i32 %16
}

; Function Attrs: mustprogress uwtable
define noundef i32 @_ZN10duckdb_hll11hllDenseAddEPhS0_m(ptr noundef %0, ptr noundef %1, i64 noundef %2) #2 {
  %4 = alloca ptr, align 8
  %5 = alloca ptr, align 8
  %6 = alloca i64, align 8
  %7 = alloca i64, align 8
  %8 = alloca i8, align 1
  store ptr %0, ptr %4, align 8, !tbaa !11
  store ptr %1, ptr %5, align 8, !tbaa !11
  store i64 %2, ptr %6, align 8, !tbaa !9
  call void @llvm.lifetime.start.p0(i64 8, ptr %7) #10
  call void @llvm.lifetime.start.p0(i64 1, ptr %8) #10
  %9 = load ptr, ptr %5, align 8, !tbaa !11
  %10 = load i64, ptr %6, align 8, !tbaa !9
  %11 = call noundef i32 @_ZN10duckdb_hll9hllPatLenEPhmPl(ptr noundef %9, i64 noundef %10, ptr noundef %7)
  %12 = trunc i32 %11 to i8
  store i8 %12, ptr %8, align 1, !tbaa !15
  %13 = load ptr, ptr %4, align 8, !tbaa !11
  %14 = load i64, ptr %7, align 8, !tbaa !9
  %15 = load i8, ptr %8, align 1, !tbaa !15
  %16 = call noundef i32 @_ZN10duckdb_hllL11hllDenseSetEPhlh(ptr noundef %13, i64 noundef %14, i8 noundef zeroext %15)
  call void @llvm.lifetime.end.p0(i64 1, ptr %8) #10
  call void @llvm.lifetime.end.p0(i64 8, ptr %7) #10
  ret i32 %16
}

; Function Attrs: mustprogress uwtable
define noundef i32 @_ZN10duckdb_hll7hll_addEPNS_4robjEPhm(ptr noundef %0, ptr noundef %1, i64 noundef %2) #2 {
  %4 = alloca i32, align 4
  %5 = alloca ptr, align 8
  %6 = alloca ptr, align 8
  %7 = alloca i64, align 8
  %8 = alloca ptr, align 8
  %9 = alloca i32, align 4
  store ptr %0, ptr %5, align 8, !tbaa !22
  store ptr %1, ptr %6, align 8, !tbaa !11
  store i64 %2, ptr %7, align 8, !tbaa !9
  call void @llvm.lifetime.start.p0(i64 8, ptr %8) #10
  %10 = load ptr, ptr %5, align 8, !tbaa !22
  %11 = getelementptr inbounds nuw %"struct.duckdb_hll::robj", ptr %10, i32 0, i32 0
  %12 = load ptr, ptr %11, align 8, !tbaa !24
  store ptr %12, ptr %8, align 8, !tbaa !26
  %13 = load ptr, ptr %8, align 8, !tbaa !26
  %14 = getelementptr inbounds nuw %"struct.duckdb_hll::hllhdr", ptr %13, i32 0, i32 1
  %15 = load i8, ptr %14, align 1, !tbaa !28
  %16 = zext i8 %15 to i32
  switch i32 %16, label %30 [
    i32 0, label %17
    i32 1, label %25
  ]

17:                                               ; preds = %3
  %18 = load ptr, ptr %8, align 8, !tbaa !26
  %19 = getelementptr inbounds nuw %"struct.duckdb_hll::hllhdr", ptr %18, i32 0, i32 4
  %20 = getelementptr inbounds [1 x i8], ptr %19, i64 0, i64 0
  %21 = getelementptr inbounds i8, ptr %20, i64 1
  %22 = load ptr, ptr %6, align 8, !tbaa !11
  %23 = load i64, ptr %7, align 8, !tbaa !9
  %24 = call noundef i32 @_ZN10duckdb_hll11hllDenseAddEPhS0_m(ptr noundef %21, ptr noundef %22, i64 noundef %23)
  store i32 %24, ptr %4, align 4
  store i32 1, ptr %9, align 4
  br label %31

25:                                               ; preds = %3
  %26 = load ptr, ptr %5, align 8, !tbaa !22
  %27 = load ptr, ptr %6, align 8, !tbaa !11
  %28 = load i64, ptr %7, align 8, !tbaa !9
  %29 = call noundef i32 @_ZN10duckdb_hll12hllSparseAddEPNS_4robjEPhm(ptr noundef %26, ptr noundef %27, i64 noundef %28)
  store i32 %29, ptr %4, align 4
  store i32 1, ptr %9, align 4
  br label %31

30:                                               ; preds = %3
  store i32 -1, ptr %4, align 4
  store i32 1, ptr %9, align 4
  br label %31

31:                                               ; preds = %30, %25, %17
  call void @llvm.lifetime.end.p0(i64 8, ptr %8) #10
  %32 = load i32, ptr %4, align 4
  ret i32 %32
}