; Function Attrs: mustprogress uwtable
define noundef range(i32 -1, 2) i32 @_ZN10duckdb_hll7hll_addEPNS_4robjEPhm(ptr noundef captures(none) %0, ptr noundef captures(address) %1, i64 noundef %2) local_unnamed_addr #3 {
  %4 = alloca i64, align 8
  %5 = alloca i64, align 8
  %6 = load ptr, ptr %0, align 8, !tbaa !14
  %7 = getelementptr inbounds nuw i8, ptr %6, i64 4
  %8 = load i8, ptr %7, align 1, !tbaa !26
  switch i8 %8, label %51 [
    i8 0, label %9
    i8 1, label %46
  ]

9:                                                ; preds = %3
  %10 = getelementptr inbounds nuw i8, ptr %6, i64 17
  call void @llvm.lifetime.start.p0(i64 8, ptr nonnull %5) #21
  %11 = call noundef i32 @_ZN10duckdb_hll9hllPatLenEPhmPl(ptr noundef %1, i64 noundef %2, ptr noundef nonnull %5)
  %12 = load i64, ptr %5, align 8, !tbaa !3
  %13 = mul nsw i64 %12, 6
  %14 = sdiv i64 %13, 8
  %15 = and i64 %13, 6
  %16 = sub nuw nsw i64 8, %15
  %17 = getelementptr inbounds nuw i8, ptr %10, i64 %14
  %18 = load i8, ptr %17, align 1, !tbaa !9
  %19 = zext i8 %18 to i64
  %20 = getelementptr i8, ptr %17, i64 1
  %21 = load i8, ptr %20, align 1, !tbaa !9
  %22 = zext i8 %21 to i64
  %23 = lshr i64 %19, %15
  %24 = shl nuw nsw i64 %22, %16
  %25 = or i64 %24, %23
  %26 = trunc nuw nsw i64 %25 to i32
  %27 = and i32 %26, 63
  %28 = and i32 %11, 255
  %29 = icmp samesign ult i32 %27, %28
  br i1 %29, label %30, label %_ZN10duckdb_hll11hllDenseAddEPhS0_m.exit

30:                                               ; preds = %9
  %31 = zext nneg i32 %28 to i64
  %32 = trunc nuw nsw i64 %15 to i8
  %33 = shl i8 63, %32
  %34 = xor i8 %33, -1
  %35 = and i8 %18, %34
  %36 = shl nuw nsw i64 %31, %15
  %37 = trunc i64 %36 to i8
  %38 = or i8 %35, %37
  store i8 %38, ptr %17, align 1, !tbaa !9
  %39 = trunc nuw nsw i64 %16 to i16
  %40 = ashr i16 -64, %39
  %41 = trunc nsw i16 %40 to i8
  %42 = and i8 %21, %41
  %43 = lshr i64 %31, %16
  %44 = trunc nuw nsw i64 %43 to i8
  %45 = or i8 %42, %44
  store i8 %45, ptr %20, align 1, !tbaa !9
  br label %_ZN10duckdb_hll11hllDenseAddEPhS0_m.exit

_ZN10duckdb_hll11hllDenseAddEPhS0_m.exit:         ; preds = %9, %30
  %.0.i.i = phi i32 [ 1, %30 ], [ 0, %9 ]
  call void @llvm.lifetime.end.p0(i64 8, ptr nonnull %5) #21
  br label %51

46:                                               ; preds = %3
  call void @llvm.lifetime.start.p0(i64 8, ptr nonnull %4) #21
  %47 = call noundef i32 @_ZN10duckdb_hll9hllPatLenEPhmPl(ptr noundef %1, i64 noundef %2, ptr noundef nonnull %4)
  %48 = trunc i32 %47 to i8
  %49 = load i64, ptr %4, align 8, !tbaa !3
  %50 = tail call noundef range(i32 -1, 2) i32 @_ZN10duckdb_hll12hllSparseSetEPNS_4robjElh(ptr noundef nonnull %0, i64 noundef %49, i8 noundef zeroext %48)
  call void @llvm.lifetime.end.p0(i64 8, ptr nonnull %4) #21
  br label %51

51:                                               ; preds = %3, %46, %_ZN10duckdb_hll11hllDenseAddEPhS0_m.exit
  %.0 = phi i32 [ %50, %46 ], [ %.0.i.i, %_ZN10duckdb_hll11hllDenseAddEPhS0_m.exit ], [ -1, %3 ]
  ret i32 %.0
}